target datalayout = "e-m:e-p270:32:32-p271:32:32-p272:64:64-i64:64-i128:128-f80:128-n8:16:32:64-S128"
target triple = "x86_64-unknown-linux-gnu"

@_ZN19OpenColorIO_v2_4dev4LookD1Ev = unnamed_addr alias void (ptr), ptr @_ZN19OpenColorIO_v2_4dev4LookD2Ev

; Function Attrs: mustprogress nounwind uwtable
define void @_ZN19OpenColorIO_v2_4dev4Look7deleterEPS0_(ptr noundef %c) #3 align 2 {
entry:
  %c.addr = alloca ptr, align 8
  store ptr %c, ptr %c.addr, align 8
  %0 = load ptr, ptr %c.addr, align 8
  %isnull = icmp eq ptr %0, null
  br i1 %isnull, label %delete.end, label %delete.notnull

delete.notnull:                                   ; preds = %entry
  call void @_ZN19OpenColorIO_v2_4dev4LookD1Ev(ptr noundef nonnull align 8 dereferenceable(8) %0) #11
  call void @_ZdlPv(ptr noundef %0) #10
  br label %delete.end

delete.end:                                       ; preds = %delete.notnull, %entry
  ret void
}