; Function Attrs: mustprogress nounwind uwtable
define void @_ZN19OpenColorIO_v2_4dev4Look7deleterEPS0_(ptr noundef %c) #3 align 2 {
entry:
  %isnull = icmp eq ptr %c, null
  br i1 %isnull, label %delete.end, label %delete.notnull

delete.notnull:                                   ; preds = %entry
  tail call void @_ZN19OpenColorIO_v2_4dev4LookD1Ev(ptr noundef nonnull align 8 dereferenceable(8) %c) #12
  tail call void @_ZdlPv(ptr noundef nonnull %c) #13
  br label %delete.end

delete.end:                                       ; preds = %delete.notnull, %entry
  ret void
}